; Function Attrs: mustprogress nofree norecurse nosync nounwind willreturn memory(read, inaccessiblemem: none) uwtable
define hidden noundef zeroext i1 @_ZNK7oopDesc20is_objArray_noinlineEv(ptr nocapture noundef nonnull readonly align 8 dereferenceable(16) %0) local_unnamed_addr #3 align 2 {
  %2 = load i8, ptr @UseCompressedClassPointers, align 1
  %3 = trunc i8 %2 to i1
  %4 = getelementptr inbounds i8, ptr %0, i64 8
  br i1 %3, label %5, label %15

5:                                                ; preds = %1
  %6 = load i32, ptr %4, align 8
  %7 = load ptr, ptr @_ZN23CompressedKlassPointers5_baseE, align 8
  %8 = load i32, ptr @_ZN23CompressedKlassPointers6_shiftE, align 4
  %9 = ptrtoint ptr %7 to i64
  %10 = zext i32 %6 to i64
  %11 = zext nneg i32 %8 to i64
  %12 = shl i64 %10, %11
  %13 = add i64 %12, %9
  %14 = inttoptr i64 %13 to ptr
  br label %_ZNK7oopDesc11is_objArrayEv.exit

15:                                               ; preds = %1
  %16 = load ptr, ptr %4, align 8
  br label %_ZNK7oopDesc11is_objArrayEv.exit

_ZNK7oopDesc11is_objArrayEv.exit:                 ; preds = %5, %15
  %.0.i.i = phi ptr [ %14, %5 ], [ %16, %15 ]
  %17 = getelementptr inbounds i8, ptr %.0.i.i, i64 12
  %18 = load i32, ptr %17, align 4
  %19 = icmp eq i32 %18, 6
  ret i1 %19
}